; Function Attrs: mustprogress norecurse uwtable
define dso_local noundef i32 @main() local_unnamed_addr #0 personality ptr @__gxx_personality_v0 {
  %1 = alloca %"struct.pxrInternal_v0_24__pxrReserved__::Tf_DiagnosticLiteHelper", align 8
  %2 = alloca %"class.std::__cxx11::basic_string", align 8
  %3 = alloca %"class.std::vector", align 8
  call void @_ZN32pxrInternal_v0_24__pxrReserved__10ArchGetCwdB5cxx11Ev(ptr dead_on_unwind nonnull writable sret(%"class.std::__cxx11::basic_string") align 8 %2)
  %4 = invoke noundef nonnull align 8 dereferenceable(104) ptr @_ZN32pxrInternal_v0_24__pxrReserved__12PlugRegistry11GetInstanceEv()
          to label %5 unwind label %33

5:                                                ; preds = %0
  invoke void @_ZN32pxrInternal_v0_24__pxrReserved__12PlugRegistry15RegisterPluginsERKNSt7__cxx1112basic_stringIcSt11char_traitsIcESaIcEEE(ptr dead_on_unwind nonnull writable sret(%"class.std::vector") align 8 %3, ptr noundef nonnull align 8 dereferenceable(104) %4, ptr noundef nonnull align 8 dereferenceable(32) %2)
          to label %6 unwind label %33

6:                                                ; preds = %5
  %7 = load ptr, ptr %3, align 8
  %8 = getelementptr inbounds nuw i8, ptr %3, i64 8
  %9 = load ptr, ptr %8, align 8
  %.not = icmp eq ptr %7, %9
  call void @llvm.lifetime.start.p0(i64 48, ptr nonnull %1)
  br i1 %.not, label %10, label %12

10:                                               ; preds = %6
  store ptr @.str, ptr %1, align 8
  %.sroa.2.0..sroa_idx = getelementptr inbounds i8, ptr %1, i64 8
  store ptr @__func__.main, ptr %.sroa.2.0..sroa_idx, align 8
  %.sroa.3.0..sroa_idx = getelementptr inbounds i8, ptr %1, i64 16
  store i64 782, ptr %.sroa.3.0..sroa_idx, align 8
  %.sroa.4.0..sroa_idx = getelementptr inbounds i8, ptr %1, i64 24
  store ptr @__PRETTY_FUNCTION__.main, ptr %.sroa.4.0..sroa_idx, align 8
  %.sroa.5.0..sroa_idx = getelementptr inbounds i8, ptr %1, i64 32
  store i8 0, ptr %.sroa.5.0..sroa_idx, align 8
  %11 = getelementptr inbounds nuw i8, ptr %1, i64 40
  store i32 4, ptr %11, align 8
  invoke void (ptr, ptr, ...) @_ZNK32pxrInternal_v0_24__pxrReserved__23Tf_DiagnosticLiteHelper15IssueFatalErrorEPKcz(ptr noundef nonnull align 8 dereferenceable(44) %1, ptr noundef nonnull @.str.3, ptr noundef nonnull @.str.1) #19
          to label %.noexc unwind label %35

.noexc:                                           ; preds = %10
  unreachable

12:                                               ; preds = %6
  call void @llvm.lifetime.end.p0(i64 48, ptr nonnull %1)
  br label %.lr.ph.i.i.i.i

.lr.ph.i.i.i.i:                                   ; preds = %12, %_ZSt8_DestroyIN32pxrInternal_v0_24__pxrReserved__9TfWeakPtrINS0_10PlugPluginEEEEvPT_.exit.i.i.i.i
  %.05.i.i.i.i = phi ptr [ %22, %_ZSt8_DestroyIN32pxrInternal_v0_24__pxrReserved__9TfWeakPtrINS0_10PlugPluginEEEEvPT_.exit.i.i.i.i ], [ %7, %12 ]
  %13 = getelementptr inbounds nuw i8, ptr %.05.i.i.i.i, i64 8
  %14 = load ptr, ptr %13, align 8
  %.not.i.i.i.i.i.i.i.i.i = icmp eq ptr %14, null
  br i1 %.not.i.i.i.i.i.i.i.i.i, label %_ZSt8_DestroyIN32pxrInternal_v0_24__pxrReserved__9TfWeakPtrINS0_10PlugPluginEEEEvPT_.exit.i.i.i.i, label %_ZN32pxrInternal_v0_24__pxrReserved__17Tf_RefPtr_Counter9RemoveRefEPKNS_9TfRefBaseE.exit.i.i.i.i.i.i.i.i

_ZN32pxrInternal_v0_24__pxrReserved__17Tf_RefPtr_Counter9RemoveRefEPKNS_9TfRefBaseE.exit.i.i.i.i.i.i.i.i: ; preds = %.lr.ph.i.i.i.i
  %15 = getelementptr inbounds nuw i8, ptr %14, i64 8
  %16 = atomicrmw sub ptr %15, i32 1 release, align 4
  %17 = icmp eq i32 %16, 1
  br i1 %17, label %18, label %_ZSt8_DestroyIN32pxrInternal_v0_24__pxrReserved__9TfWeakPtrINS0_10PlugPluginEEEEvPT_.exit.i.i.i.i

18:                                               ; preds = %_ZN32pxrInternal_v0_24__pxrReserved__17Tf_RefPtr_Counter9RemoveRefEPKNS_9TfRefBaseE.exit.i.i.i.i.i.i.i.i
  %19 = load ptr, ptr %14, align 8
  %20 = getelementptr inbounds i8, ptr %19, i64 8
  %21 = load ptr, ptr %20, align 8
  call void %21(ptr noundef nonnull align 8 dereferenceable(12) %14) #20
  br label %_ZSt8_DestroyIN32pxrInternal_v0_24__pxrReserved__9TfWeakPtrINS0_10PlugPluginEEEEvPT_.exit.i.i.i.i

_ZSt8_DestroyIN32pxrInternal_v0_24__pxrReserved__9TfWeakPtrINS0_10PlugPluginEEEEvPT_.exit.i.i.i.i: ; preds = %18, %_ZN32pxrInternal_v0_24__pxrReserved__17Tf_RefPtr_Counter9RemoveRefEPKNS_9TfRefBaseE.exit.i.i.i.i.i.i.i.i, %.lr.ph.i.i.i.i
  %22 = getelementptr inbounds i8, ptr %.05.i.i.i.i, i64 16
  %.not.i.i.i.i = icmp eq ptr %22, %9
  br i1 %.not.i.i.i.i, label %_ZSt8_DestroyIPN32pxrInternal_v0_24__pxrReserved__9TfWeakPtrINS0_10PlugPluginEEES3_EvT_S5_RSaIT0_E.exit.i, label %.lr.ph.i.i.i.i, !llvm.loop !5

_ZSt8_DestroyIPN32pxrInternal_v0_24__pxrReserved__9TfWeakPtrINS0_10PlugPluginEEES3_EvT_S5_RSaIT0_E.exit.i: ; preds = %_ZSt8_DestroyIN32pxrInternal_v0_24__pxrReserved__9TfWeakPtrINS0_10PlugPluginEEEEvPT_.exit.i.i.i.i
  %.pr.i = load ptr, ptr %3, align 8
  %.not.i.i.i = icmp eq ptr %.pr.i, null
  br i1 %.not.i.i.i, label %_ZNSt6vectorIN32pxrInternal_v0_24__pxrReserved__9TfWeakPtrINS0_10PlugPluginEEESaIS3_EED2Ev.exit, label %23

23:                                               ; preds = %_ZSt8_DestroyIPN32pxrInternal_v0_24__pxrReserved__9TfWeakPtrINS0_10PlugPluginEEES3_EvT_S5_RSaIT0_E.exit.i
  %24 = getelementptr inbounds nuw i8, ptr %3, i64 16
  %25 = load ptr, ptr %24, align 8
  %26 = ptrtoint ptr %25 to i64
  %27 = ptrtoint ptr %.pr.i to i64
  %28 = sub i64 %26, %27
  call void @_ZdlPvm(ptr noundef nonnull %.pr.i, i64 noundef %28) #21
  br label %_ZNSt6vectorIN32pxrInternal_v0_24__pxrReserved__9TfWeakPtrINS0_10PlugPluginEEESaIS3_EED2Ev.exit

_ZNSt6vectorIN32pxrInternal_v0_24__pxrReserved__9TfWeakPtrINS0_10PlugPluginEEESaIS3_EED2Ev.exit: ; preds = %_ZSt8_DestroyIPN32pxrInternal_v0_24__pxrReserved__9TfWeakPtrINS0_10PlugPluginEEES3_EvT_S5_RSaIT0_E.exit.i, %23
  invoke fastcc void @_ZL25_TestGetMetadataNoOffsetsv()
          to label %29 unwind label %33

29:                                               ; preds = %_ZNSt6vectorIN32pxrInternal_v0_24__pxrReserved__9TfWeakPtrINS0_10PlugPluginEEESaIS3_EED2Ev.exit
  invoke fastcc void @_ZL32_TestGetMetaDataWithLayerOffsetsv()
          to label %30 unwind label %33

30:                                               ; preds = %29
  invoke fastcc void @_ZL30_TestSetMetaDataWithEditTargetv()
          to label %31 unwind label %33

31:                                               ; preds = %30
  invoke fastcc void @_ZL31_TestSetAttrValueWithEditTargetv()
          to label %32 unwind label %33

32:                                               ; preds = %31
  %puts = call i32 @puts(ptr nonnull dereferenceable(1) @str)
  call void @_ZNSt7__cxx1112basic_stringIcSt11char_traitsIcESaIcEED1Ev(ptr noundef nonnull align 8 dereferenceable(32) %2) #20
  ret i32 0

33:                                               ; preds = %31, %30, %29, %_ZNSt6vectorIN32pxrInternal_v0_24__pxrReserved__9TfWeakPtrINS0_10PlugPluginEEESaIS3_EED2Ev.exit, %5, %0
  %34 = landingpad { ptr, i32 }
          cleanup
  br label %37

35:                                               ; preds = %10
  %36 = landingpad { ptr, i32 }
          cleanup
  call void @_ZNSt6vectorIN32pxrInternal_v0_24__pxrReserved__9TfWeakPtrINS0_10PlugPluginEEESaIS3_EED2Ev(ptr noundef nonnull align 8 dereferenceable(24) %3) #20
  br label %37

37:                                               ; preds = %35, %33
  %.pn = phi { ptr, i32 } [ %34, %33 ], [ %36, %35 ]
  call void @_ZNSt7__cxx1112basic_stringIcSt11char_traitsIcESaIcEED1Ev(ptr noundef nonnull align 8 dereferenceable(32) %2) #20
  resume { ptr, i32 } %.pn
}